; Function Attrs: mustprogress uwtable
define dso_local void @_ZN3ozz9animation11SamplingJob7ContextC2Ei(ptr noundef nonnull align 8 captures(none) dereferenceable(192) initializes((0, 60), (64, 100), (104, 140), (144, 192)) %0, i32 noundef %1) unnamed_addr #4 align 2 {
  %3 = getelementptr inbounds nuw i8, ptr %0, i64 12
  %4 = getelementptr inbounds nuw i8, ptr %0, i64 64
  tail call void @llvm.memset.p0.i64(ptr noundef nonnull align 8 dereferenceable(36) %4, i8 0, i64 32, i1 false)
  %5 = getelementptr inbounds nuw i8, ptr %0, i64 104
  tail call void @llvm.memset.p0.i64(ptr noundef nonnull align 8 dereferenceable(36) %5, i8 0, i64 32, i1 false)
  %6 = getelementptr inbounds nuw i8, ptr %0, i64 144
  tail call void @llvm.memset.p0.i64(ptr noundef nonnull align 4 dereferenceable(44) %3, i8 0, i64 44, i1 false)
  tail call void @llvm.memset.p0.i64(ptr noundef nonnull align 8 dereferenceable(48) %6, i8 0, i64 48, i1 false)
  tail call void @_ZN3ozz9animation11SamplingJob7Context6ResizeEi(ptr noundef nonnull align 8 dereferenceable(192) %0, i32 noundef %1)
  ret void
}